target datalayout = "e-m:e-p270:32:32-p271:32:32-p272:64:64-i64:64-i128:128-f80:128-n8:16:32:64-S128"
target triple = "x86_64-pc-linux-gnu"

%struct.ic_env_s = type { ptr, ptr, ptr, ptr, ptr, ptr, ptr, ptr, ptr, ptr, ptr, ptr, ptr, i8, i8, i8, i8, i8, i8, i8, i8, i8, i8, i8, i8, i8, i64 }
%struct.alloc_s = type { ptr, ptr, ptr }
%struct.history_s = type { i64, i64, ptr, ptr, ptr, i8 }

@rpenv = internal global ptr null, align 8

; Function Attrs: nounwind uwtable
define internal void @mem_free(ptr noundef %0, ptr noundef %1) #0 {
  %3 = alloca ptr, align 8
  %4 = alloca ptr, align 8
  store ptr %0, ptr %3, align 8, !tbaa !34
  store ptr %1, ptr %4, align 8, !tbaa !51
  %5 = load ptr, ptr %3, align 8, !tbaa !34
  %6 = getelementptr inbounds nuw %struct.alloc_s, ptr %5, i32 0, i32 2
  %7 = load ptr, ptr %6, align 8, !tbaa !87
  %8 = load ptr, ptr %4, align 8, !tbaa !51
  call void %7(ptr noundef %8)
  ret void
}

; Function Attrs: nounwind uwtable
define internal void @history_remove_last_n(ptr noundef %0, i64 noundef %1) #0 {
  %3 = alloca ptr, align 8
  %4 = alloca i64, align 8
  %5 = alloca i64, align 8
  store ptr %0, ptr %3, align 8, !tbaa !152
  store i64 %1, ptr %4, align 8, !tbaa !9
  %6 = load i64, ptr %4, align 8, !tbaa !9
  %7 = icmp sle i64 %6, 0
  br i1 %7, label %8, label %9

8:                                                ; preds = %2
  br label %51

9:                                                ; preds = %2
  %10 = load i64, ptr %4, align 8, !tbaa !9
  %11 = load ptr, ptr %3, align 8, !tbaa !152
  %12 = getelementptr inbounds nuw %struct.history_s, ptr %11, i32 0, i32 0
  %13 = load i64, ptr %12, align 8, !tbaa !159
  %14 = icmp sgt i64 %10, %13
  br i1 %14, label %15, label %19

15:                                               ; preds = %9
  %16 = load ptr, ptr %3, align 8, !tbaa !152
  %17 = getelementptr inbounds nuw %struct.history_s, ptr %16, i32 0, i32 0
  %18 = load i64, ptr %17, align 8, !tbaa !159
  store i64 %18, ptr %4, align 8, !tbaa !9
  br label %19

19:                                               ; preds = %15, %9
  call void @llvm.lifetime.start.p0(i64 8, ptr %5) #13
  %20 = load ptr, ptr %3, align 8, !tbaa !152
  %21 = getelementptr inbounds nuw %struct.history_s, ptr %20, i32 0, i32 0
  %22 = load i64, ptr %21, align 8, !tbaa !159
  %23 = load i64, ptr %4, align 8, !tbaa !9
  %24 = sub nsw i64 %22, %23
  store i64 %24, ptr %5, align 8, !tbaa !9
  br label %25

25:                                               ; preds = %42, %19
  %26 = load i64, ptr %5, align 8, !tbaa !9
  %27 = load ptr, ptr %3, align 8, !tbaa !152
  %28 = getelementptr inbounds nuw %struct.history_s, ptr %27, i32 0, i32 0
  %29 = load i64, ptr %28, align 8, !tbaa !159
  %30 = icmp slt i64 %26, %29
  br i1 %30, label %32, label %31

31:                                               ; preds = %25
  call void @llvm.lifetime.end.p0(i64 8, ptr %5) #13
  br label %45

32:                                               ; preds = %25
  %33 = load ptr, ptr %3, align 8, !tbaa !152
  %34 = getelementptr inbounds nuw %struct.history_s, ptr %33, i32 0, i32 4
  %35 = load ptr, ptr %34, align 8, !tbaa !155
  %36 = load ptr, ptr %3, align 8, !tbaa !152
  %37 = getelementptr inbounds nuw %struct.history_s, ptr %36, i32 0, i32 2
  %38 = load ptr, ptr %37, align 8, !tbaa !157
  %39 = load i64, ptr %5, align 8, !tbaa !9
  %40 = getelementptr inbounds ptr, ptr %38, i64 %39
  %41 = load ptr, ptr %40, align 8, !tbaa !11
  call void @mem_free(ptr noundef %35, ptr noundef %41)
  br label %42

42:                                               ; preds = %32
  %43 = load i64, ptr %5, align 8, !tbaa !9
  %44 = add nsw i64 %43, 1
  store i64 %44, ptr %5, align 8, !tbaa !9
  br label %25, !llvm.loop !427

45:                                               ; preds = %31
  %46 = load i64, ptr %4, align 8, !tbaa !9
  %47 = load ptr, ptr %3, align 8, !tbaa !152
  %48 = getelementptr inbounds nuw %struct.history_s, ptr %47, i32 0, i32 0
  %49 = load i64, ptr %48, align 8, !tbaa !159
  %50 = sub nsw i64 %49, %46
  store i64 %50, ptr %48, align 8, !tbaa !159
  br label %51

51:                                               ; preds = %45, %8
  ret void
}

; Function Attrs: nounwind uwtable
define internal void @history_remove_last(ptr noundef %0) #0 {
  %2 = alloca ptr, align 8
  store ptr %0, ptr %2, align 8, !tbaa !152
  %3 = load ptr, ptr %2, align 8, !tbaa !152
  call void @history_remove_last_n(ptr noundef %3, i64 noundef 1)
  ret void
}

; Function Attrs: nounwind uwtable
define internal ptr @ic_get_env() #0 {
  %1 = load ptr, ptr @rpenv, align 8, !tbaa !65
  %2 = icmp eq ptr %1, null
  br i1 %2, label %3, label %10

3:                                                ; preds = %0
  %4 = call ptr @ic_env_create(ptr noundef null, ptr noundef null, ptr noundef null)
  store ptr %4, ptr @rpenv, align 8, !tbaa !65
  %5 = load ptr, ptr @rpenv, align 8, !tbaa !65
  %6 = icmp ne ptr %5, null
  br i1 %6, label %7, label %9

7:                                                ; preds = %3
  %8 = call i32 @atexit(ptr noundef @ic_atexit) #13
  br label %9

9:                                                ; preds = %7, %3
  br label %10

10:                                               ; preds = %9, %0
  %11 = load ptr, ptr @rpenv, align 8, !tbaa !65
  ret ptr %11
}

; Function Attrs: nounwind uwtable
define dso_local void @ic_history_remove_last() #0 {
  %1 = alloca ptr, align 8
  %2 = alloca i32, align 4
  call void @llvm.lifetime.start.p0(i64 8, ptr %1) #13
  %3 = call ptr @ic_get_env()
  store ptr %3, ptr %1, align 8, !tbaa !65
  %4 = load ptr, ptr %1, align 8, !tbaa !65
  %5 = icmp eq ptr %4, null
  br i1 %5, label %6, label %7

6:                                                ; preds = %0
  store i32 1, ptr %2, align 4
  br label %11

7:                                                ; preds = %0
  %8 = load ptr, ptr %1, align 8, !tbaa !65
  %9 = getelementptr inbounds nuw %struct.ic_env_s, ptr %8, i32 0, i32 5
  %10 = load ptr, ptr %9, align 8, !tbaa !151
  call void @history_remove_last(ptr noundef %10)
  store i32 0, ptr %2, align 4
  br label %11

11:                                               ; preds = %7, %6
  call void @llvm.lifetime.end.p0(i64 8, ptr %1) #13
  %12 = load i32, ptr %2, align 4
  switch i32 %12, label %14 [
    i32 0, label %13
    i32 1, label %13
  ]

13:                                               ; preds = %11, %11
  ret void

14:                                               ; preds = %11
  unreachable
}