; Function Attrs: nounwind uwtable
define dso_local void @ic_history_remove_last() local_unnamed_addr #0 {
  %1 = load ptr, ptr @rpenv, align 8, !tbaa !108
  %2 = icmp eq ptr %1, null
  br i1 %2, label %3, label %ic_get_env.exit.thread2

3:                                                ; preds = %0
  %4 = tail call fastcc ptr @ic_env_create(ptr noundef null, ptr noundef null, ptr noundef null)
  store ptr %4, ptr @rpenv, align 8, !tbaa !108
  %.not.i = icmp eq ptr %4, null
  br i1 %.not.i, label %ic_get_env.exit.thread, label %ic_get_env.exit

ic_get_env.exit:                                  ; preds = %3
  %5 = tail call i32 @atexit(ptr noundef nonnull @ic_atexit) #32
  %.pre.i = load ptr, ptr @rpenv, align 8, !tbaa !108
  %6 = icmp eq ptr %.pre.i, null
  br i1 %6, label %ic_get_env.exit.thread, label %ic_get_env.exit.thread2

ic_get_env.exit.thread2:                          ; preds = %0, %ic_get_env.exit
  %7 = phi ptr [ %.pre.i, %ic_get_env.exit ], [ %1, %0 ]
  %8 = getelementptr inbounds nuw i8, ptr %7, i64 40
  %9 = load ptr, ptr %8, align 8, !tbaa !142
  %10 = load i64, ptr %9, align 8, !tbaa !147
  %spec.select.i.i = tail call i64 @llvm.smin.i64(i64 %10, i64 1)
  %11 = icmp sgt i64 %10, 0
  br i1 %11, label %.lr.ph.i.i, label %history_remove_last.exit

.lr.ph.i.i:                                       ; preds = %ic_get_env.exit.thread2
  %12 = sub nsw i64 %10, %spec.select.i.i
  %13 = getelementptr inbounds nuw i8, ptr %9, i64 32
  %14 = getelementptr inbounds nuw i8, ptr %9, i64 16
  br label %15

15:                                               ; preds = %15, %.lr.ph.i.i
  %.017.i.i = phi i64 [ %12, %.lr.ph.i.i ], [ %21, %15 ]
  %16 = load ptr, ptr %13, align 8, !tbaa !148
  %17 = load ptr, ptr %14, align 8, !tbaa !149
  %18 = getelementptr inbounds ptr, ptr %17, i64 %.017.i.i
  %19 = load ptr, ptr %18, align 8, !tbaa !56
  %20 = getelementptr i8, ptr %16, i64 16
  %.val.i.i = load ptr, ptr %20, align 8, !tbaa !44
  tail call void %.val.i.i(ptr noundef %19) #32
  %21 = add nsw i64 %.017.i.i, 1
  %22 = load i64, ptr %9, align 8, !tbaa !147
  %23 = icmp slt i64 %21, %22
  br i1 %23, label %15, label %history_remove_last.exit, !llvm.loop !150

history_remove_last.exit:                         ; preds = %15, %ic_get_env.exit.thread2
  %.lcssa.i.i = phi i64 [ %10, %ic_get_env.exit.thread2 ], [ %22, %15 ]
  %24 = sub nsw i64 %.lcssa.i.i, %spec.select.i.i
  store i64 %24, ptr %9, align 8, !tbaa !147
  br label %ic_get_env.exit.thread

ic_get_env.exit.thread:                           ; preds = %3, %ic_get_env.exit, %history_remove_last.exit
  ret void
}